; Function Attrs: nounwind uwtable
define ptr @stbiw__zlib_flushf(ptr noundef captures(address, ret: address, provenance) %0, ptr noundef captures(none) %1, ptr noundef captures(none) %2) local_unnamed_addr #5 {
  %.pr = load i32, ptr %2, align 4, !tbaa !3
  %4 = icmp sgt i32 %.pr, 7
  br i1 %4, label %.lr.ph, label %._crit_edge

.lr.ph:                                           ; preds = %3, %stbiw__sbgrowf.exit
  %.07 = phi ptr [ %.1, %stbiw__sbgrowf.exit ], [ %0, %3 ]
  %5 = icmp eq ptr %.07, null
  br i1 %5, label %15, label %6

6:                                                ; preds = %.lr.ph
  %7 = getelementptr inbounds i8, ptr %.07, i64 -8
  %8 = getelementptr inbounds i8, ptr %.07, i64 -4
  %9 = load i32, ptr %8, align 4, !tbaa !3
  %10 = add nsw i32 %9, 1
  %11 = load i32, ptr %7, align 4, !tbaa !3
  %.not = icmp slt i32 %10, %11
  br i1 %.not, label %stbiw__sbgrowf.exit, label %12

12:                                               ; preds = %6
  %13 = shl nsw i32 %11, 1
  %14 = or disjoint i32 %13, 1
  br label %15

15:                                               ; preds = %.lr.ph, %12
  %16 = phi i32 [ %14, %12 ], [ 2, %.lr.ph ]
  %17 = getelementptr inbounds i8, ptr %.07, i64 -8
  %spec.select.i = select i1 %5, ptr null, ptr %17
  %18 = sext i32 %16 to i64
  %19 = add nsw i64 %18, 8
  %20 = tail call ptr @realloc(ptr noundef %spec.select.i, i64 noundef %19) #28
  %.not18.i = icmp eq ptr %20, null
  br i1 %.not18.i, label %stbiw__sbgrowf.exit, label %21

21:                                               ; preds = %15
  br i1 %5, label %22, label %24

22:                                               ; preds = %21
  %23 = getelementptr inbounds nuw i8, ptr %20, i64 4
  store i32 0, ptr %23, align 4, !tbaa !3
  br label %24

24:                                               ; preds = %22, %21
  %25 = getelementptr inbounds nuw i8, ptr %20, i64 8
  store i32 %16, ptr %20, align 4, !tbaa !3
  br label %stbiw__sbgrowf.exit

stbiw__sbgrowf.exit:                              ; preds = %24, %15, %6
  %.1 = phi ptr [ %.07, %6 ], [ %.07, %15 ], [ %25, %24 ]
  %26 = load i32, ptr %1, align 4, !tbaa !3
  %27 = trunc i32 %26 to i8
  %28 = getelementptr inbounds i8, ptr %.1, i64 -4
  %29 = load i32, ptr %28, align 4, !tbaa !3
  %30 = add nsw i32 %29, 1
  store i32 %30, ptr %28, align 4, !tbaa !3
  %31 = sext i32 %29 to i64
  %32 = getelementptr inbounds i8, ptr %.1, i64 %31
  store i8 %27, ptr %32, align 1, !tbaa !11
  %33 = load i32, ptr %1, align 4, !tbaa !3
  %34 = lshr i32 %33, 8
  store i32 %34, ptr %1, align 4, !tbaa !3
  %35 = load i32, ptr %2, align 4, !tbaa !3
  %36 = add nsw i32 %35, -8
  store i32 %36, ptr %2, align 4, !tbaa !3
  %37 = icmp sgt i32 %35, 15
  br i1 %37, label %.lr.ph, label %._crit_edge, !llvm.loop !35

._crit_edge:                                      ; preds = %stbiw__sbgrowf.exit, %3
  %.0.lcssa = phi ptr [ %0, %3 ], [ %.1, %stbiw__sbgrowf.exit ]
  ret ptr %.0.lcssa
}